; Function Attrs: nounwind uwtable
define internal range(i32 -21, 903) i32 @cvNlsLSolveSensStg1(ptr noundef %0, ptr noundef %1) #0 {
  %3 = icmp eq ptr %1, null
  br i1 %3, label %4, label %5

4:                                                ; preds = %2
  tail call void (ptr, i32, i32, ptr, ptr, ptr, ...) @cvProcessError(ptr noundef null, i32 noundef -21, i32 noundef 243, ptr noundef nonnull @__func__.cvNlsLSolveSensStg1, ptr noundef nonnull @.str, ptr noundef nonnull @.str.1) #2
  br label %22

5:                                                ; preds = %2
  %6 = getelementptr inbounds nuw i8, ptr %1, i64 1892
  %7 = load i32, ptr %6, align 4
  %8 = getelementptr inbounds nuw i8, ptr %1, i64 2000
  %9 = load ptr, ptr %8, align 8
  %10 = getelementptr inbounds nuw i8, ptr %1, i64 752
  %11 = load ptr, ptr %10, align 8
  %12 = sext i32 %7 to i64
  %13 = getelementptr inbounds ptr, ptr %11, i64 %12
  %14 = load ptr, ptr %13, align 8
  %15 = getelementptr inbounds nuw i8, ptr %1, i64 448
  %16 = load ptr, ptr %15, align 8
  %17 = getelementptr inbounds nuw i8, ptr %1, i64 472
  %18 = load ptr, ptr %17, align 8
  %19 = tail call i32 %9(ptr noundef nonnull %1, ptr noundef %0, ptr noundef %14, ptr noundef %16, ptr noundef %18) #2
  %20 = icmp slt i32 %19, 0
  br i1 %20, label %22, label %21

21:                                               ; preds = %5
  %.not = icmp eq i32 %19, 0
  %. = select i1 %.not, i32 0, i32 902
  br label %22

22:                                               ; preds = %21, %5, %4
  %.0 = phi i32 [ -21, %4 ], [ -7, %5 ], [ %., %21 ]
  ret i32 %.0
}